; Function Attrs: mustprogress uwtable
define hidden void @_ZN7datalog30finite_product_relation_plugin16split_signaturesERKNS_18relation_signatureERNS_15table_signatureERS1_(ptr nocapture noundef nonnull readonly align 8 dereferenceable(112) %this, ptr nocapture noundef nonnull readonly align 8 dereferenceable(8) %s, ptr noundef nonnull align 8 dereferenceable(12) %table_sig, ptr noundef nonnull align 8 dereferenceable(8) %remaining_sig) local_unnamed_addr #3 align 2 {
entry:
  %t_sort = alloca i64, align 8
  %m_manager.i = getelementptr inbounds i8, ptr %this, i64 24
  %0 = load ptr, ptr %m_manager.i, align 8
  %1 = load ptr, ptr %s, align 8
  %cmp.i = icmp eq ptr %1, null
  br i1 %cmp.i, label %for.end, label %_ZNK6vectorIP4sortLb0EjE4sizeEv.exit

_ZNK6vectorIP4sortLb0EjE4sizeEv.exit:             ; preds = %entry
  %arrayidx.i = getelementptr inbounds i8, ptr %1, i64 -4
  %2 = load i32, ptr %arrayidx.i, align 4
  %cmp26.not = icmp eq i32 %2, 0
  br i1 %cmp26.not, label %for.end, label %for.body.preheader

for.body.preheader:                               ; preds = %_ZNK6vectorIP4sortLb0EjE4sizeEv.exit
  %wide.trip.count = zext i32 %2 to i64
  br label %for.body

for.body:                                         ; preds = %for.body.preheader, %for.inc
  %indvars.iv = phi i64 [ 0, %for.body.preheader ], [ %indvars.iv.next, %for.inc ]
  %3 = load ptr, ptr %s, align 8
  %arrayidx.i6 = getelementptr inbounds ptr, ptr %3, i64 %indvars.iv
  %call4 = call noundef zeroext i1 @_ZN7datalog16relation_manager22relation_sort_to_tableERKP4sortRm(ptr noundef nonnull align 8 dereferenceable(200) %0, ptr noundef nonnull align 8 dereferenceable(8) %arrayidx.i6, ptr noundef nonnull align 8 dereferenceable(8) %t_sort)
  br i1 %call4, label %if.then, label %if.else

if.then:                                          ; preds = %for.body
  %4 = load ptr, ptr %table_sig, align 8
  %cmp.i7 = icmp eq ptr %4, null
  br i1 %cmp.i7, label %if.then.i, label %lor.lhs.false.i

lor.lhs.false.i:                                  ; preds = %if.then
  %arrayidx.i8 = getelementptr inbounds i8, ptr %4, i64 -4
  %5 = load i32, ptr %arrayidx.i8, align 4
  %arrayidx4.i = getelementptr inbounds i8, ptr %4, i64 -8
  %6 = load i32, ptr %arrayidx4.i, align 4
  %cmp5.i = icmp eq i32 %5, %6
  br i1 %cmp5.i, label %if.then.i, label %_ZN6vectorImLb0EjE9push_backERKm.exit

if.then.i:                                        ; preds = %lor.lhs.false.i, %if.then
  call void @_ZN6vectorImLb0EjE13expand_vectorEv(ptr noundef nonnull align 8 dereferenceable(8) %table_sig)
  %.pre.i = load ptr, ptr %table_sig, align 8
  %arrayidx8.phi.trans.insert.i = getelementptr inbounds i8, ptr %.pre.i, i64 -4
  %.pre1.i = load i32, ptr %arrayidx8.phi.trans.insert.i, align 4
  br label %_ZN6vectorImLb0EjE9push_backERKm.exit

_ZN6vectorImLb0EjE9push_backERKm.exit:            ; preds = %lor.lhs.false.i, %if.then.i
  %7 = phi i32 [ %.pre1.i, %if.then.i ], [ %5, %lor.lhs.false.i ]
  %8 = phi ptr [ %.pre.i, %if.then.i ], [ %4, %lor.lhs.false.i ]
  %idx.ext.i = zext i32 %7 to i64
  %add.ptr.i = getelementptr inbounds i64, ptr %8, i64 %idx.ext.i
  %9 = load i64, ptr %t_sort, align 8
  store i64 %9, ptr %add.ptr.i, align 8
  br label %for.inc

if.else:                                          ; preds = %for.body
  %10 = load ptr, ptr %s, align 8
  %arrayidx.i11 = getelementptr inbounds ptr, ptr %10, i64 %indvars.iv
  %11 = load ptr, ptr %remaining_sig, align 8
  %cmp.i12 = icmp eq ptr %11, null
  br i1 %cmp.i12, label %if.then.i22, label %lor.lhs.false.i13

lor.lhs.false.i13:                                ; preds = %if.else
  %arrayidx.i14 = getelementptr inbounds i8, ptr %11, i64 -4
  %12 = load i32, ptr %arrayidx.i14, align 4
  %arrayidx4.i15 = getelementptr inbounds i8, ptr %11, i64 -8
  %13 = load i32, ptr %arrayidx4.i15, align 4
  %cmp5.i16 = icmp eq i32 %12, %13
  br i1 %cmp5.i16, label %if.then.i22, label %_ZN6vectorIP4sortLb0EjE9push_backERKS1_.exit

if.then.i22:                                      ; preds = %lor.lhs.false.i13, %if.else
  call void @_ZN6vectorIP4sortLb0EjE13expand_vectorEv(ptr noundef nonnull align 8 dereferenceable(8) %remaining_sig)
  %.pre.i23 = load ptr, ptr %remaining_sig, align 8
  %arrayidx8.phi.trans.insert.i24 = getelementptr inbounds i8, ptr %.pre.i23, i64 -4
  %.pre1.i25 = load i32, ptr %arrayidx8.phi.trans.insert.i24, align 4
  br label %_ZN6vectorIP4sortLb0EjE9push_backERKS1_.exit

_ZN6vectorIP4sortLb0EjE9push_backERKS1_.exit:     ; preds = %lor.lhs.false.i13, %if.then.i22
  %14 = phi i32 [ %.pre1.i25, %if.then.i22 ], [ %12, %lor.lhs.false.i13 ]
  %15 = phi ptr [ %.pre.i23, %if.then.i22 ], [ %11, %lor.lhs.false.i13 ]
  %idx.ext.i18 = zext i32 %14 to i64
  %add.ptr.i19 = getelementptr inbounds ptr, ptr %15, i64 %idx.ext.i18
  %16 = load ptr, ptr %arrayidx.i11, align 8
  store ptr %16, ptr %add.ptr.i19, align 8
  br label %for.inc

for.inc:                                          ; preds = %_ZN6vectorImLb0EjE9push_backERKm.exit, %_ZN6vectorIP4sortLb0EjE9push_backERKS1_.exit
  %table_sig.sink = phi ptr [ %table_sig, %_ZN6vectorImLb0EjE9push_backERKm.exit ], [ %remaining_sig, %_ZN6vectorIP4sortLb0EjE9push_backERKS1_.exit ]
  %17 = load ptr, ptr %table_sig.sink, align 8
  %arrayidx10.i = getelementptr inbounds i8, ptr %17, i64 -4
  %18 = load i32, ptr %arrayidx10.i, align 4
  %inc.i = add i32 %18, 1
  store i32 %inc.i, ptr %arrayidx10.i, align 4
  %indvars.iv.next = add nuw nsw i64 %indvars.iv, 1
  %exitcond.not = icmp eq i64 %indvars.iv.next, %wide.trip.count
  br i1 %exitcond.not, label %for.end, label %for.body, !llvm.loop !12

for.end:                                          ; preds = %for.inc, %entry, %_ZNK6vectorIP4sortLb0EjE4sizeEv.exit
  ret void
}